target datalayout = "e-m:e-p270:32:32-p271:32:32-p272:64:64-i64:64-i128:128-f80:128-n8:16:32:64-S128"
target triple = "x86_64-pc-linux-gnu"

%union.Value = type { ptr }
%struct.Table = type { ptr, i8, i8, i8, i8, i32, ptr, ptr, ptr, ptr }
%struct.TValue = type { %union.Value, i8 }
%union.Node = type { %struct.NodeKey }
%struct.NodeKey = type { %union.Value, i8, i8, i32, %union.Value }

@.str.1 = private unnamed_addr constant [19 x i8] c"table index is nil\00", align 1
@.str.2 = private unnamed_addr constant [19 x i8] c"table index is NaN\00", align 1

; Function Attrs: nounwind uwtable
define hidden void @luaH_finishset(ptr noundef %0, ptr noundef %1, ptr noundef %2, ptr noundef %3, i32 noundef %4) #0 {
  %6 = alloca ptr, align 8
  %7 = alloca ptr, align 8
  %8 = alloca ptr, align 8
  %9 = alloca ptr, align 8
  %10 = alloca i32, align 4
  %11 = alloca %struct.TValue, align 8
  %12 = alloca double, align 8
  %13 = alloca i64, align 8
  %14 = alloca ptr, align 8
  %15 = alloca ptr, align 8
  %16 = alloca ptr, align 8
  store ptr %0, ptr %6, align 8, !tbaa !4
  store ptr %1, ptr %7, align 8, !tbaa !9
  store ptr %2, ptr %8, align 8, !tbaa !22
  store ptr %3, ptr %9, align 8, !tbaa !22
  store i32 %4, ptr %10, align 4, !tbaa !19
  %17 = load i32, ptr %10, align 4, !tbaa !19
  %18 = icmp eq i32 %17, 1
  br i1 %18, label %19, label %74

19:                                               ; preds = %5
  call void @llvm.lifetime.start.p0(i64 16, ptr %11) #8
  %20 = load ptr, ptr %8, align 8, !tbaa !22
  %21 = getelementptr inbounds nuw %struct.TValue, ptr %20, i32 0, i32 1
  %22 = load i8, ptr %21, align 8, !tbaa !24
  %23 = zext i8 %22 to i32
  %24 = and i32 %23, 15
  %25 = icmp eq i32 %24, 0
  %26 = zext i1 %25 to i32
  %27 = icmp ne i32 %26, 0
  %28 = zext i1 %27 to i32
  %29 = sext i32 %28 to i64
  %30 = call i64 @llvm.expect.i64(i64 %29, i64 0)
  %31 = icmp ne i64 %30, 0
  br i1 %31, label %32, label %34

32:                                               ; preds = %19
  %33 = load ptr, ptr %6, align 8, !tbaa !4
  call void (ptr, ptr, ...) @luaG_runerror(ptr noundef %33, ptr noundef @.str.1) #9
  unreachable

34:                                               ; preds = %19
  %35 = load ptr, ptr %8, align 8, !tbaa !22
  %36 = getelementptr inbounds nuw %struct.TValue, ptr %35, i32 0, i32 1
  %37 = load i8, ptr %36, align 8, !tbaa !24
  %38 = zext i8 %37 to i32
  %39 = icmp eq i32 %38, 19
  br i1 %39, label %40, label %68

40:                                               ; preds = %34
  call void @llvm.lifetime.start.p0(i64 8, ptr %12) #8
  %41 = load ptr, ptr %8, align 8, !tbaa !22
  %42 = getelementptr inbounds nuw %struct.TValue, ptr %41, i32 0, i32 0
  %43 = load double, ptr %42, align 8, !tbaa !21
  store double %43, ptr %12, align 8, !tbaa !49
  call void @llvm.lifetime.start.p0(i64 8, ptr %13) #8
  %44 = load double, ptr %12, align 8, !tbaa !49
  %45 = call i32 @luaV_flttointeger(double noundef %44, ptr noundef %13, i32 noundef 0)
  %46 = icmp ne i32 %45, 0
  br i1 %46, label %47, label %53

47:                                               ; preds = %40
  call void @llvm.lifetime.start.p0(i64 8, ptr %14) #8
  store ptr %11, ptr %14, align 8, !tbaa !22
  %48 = load i64, ptr %13, align 8, !tbaa !38
  %49 = load ptr, ptr %14, align 8, !tbaa !22
  %50 = getelementptr inbounds nuw %struct.TValue, ptr %49, i32 0, i32 0
  store i64 %48, ptr %50, align 8, !tbaa !21
  %51 = load ptr, ptr %14, align 8, !tbaa !22
  %52 = getelementptr inbounds nuw %struct.TValue, ptr %51, i32 0, i32 1
  store i8 3, ptr %52, align 8, !tbaa !24
  call void @llvm.lifetime.end.p0(i64 8, ptr %14) #8
  store ptr %11, ptr %8, align 8, !tbaa !22
  br label %67

53:                                               ; preds = %40
  %54 = load double, ptr %12, align 8, !tbaa !49
  %55 = load double, ptr %12, align 8, !tbaa !49
  %56 = fcmp oeq double %54, %55
  %57 = xor i1 %56, true
  %58 = zext i1 %57 to i32
  %59 = icmp ne i32 %58, 0
  %60 = zext i1 %59 to i32
  %61 = sext i32 %60 to i64
  %62 = call i64 @llvm.expect.i64(i64 %61, i64 0)
  %63 = icmp ne i64 %62, 0
  br i1 %63, label %64, label %66

64:                                               ; preds = %53
  %65 = load ptr, ptr %6, align 8, !tbaa !4
  call void (ptr, ptr, ...) @luaG_runerror(ptr noundef %65, ptr noundef @.str.2) #9
  unreachable

66:                                               ; preds = %53
  br label %67

67:                                               ; preds = %66, %47
  call void @llvm.lifetime.end.p0(i64 8, ptr %13) #8
  call void @llvm.lifetime.end.p0(i64 8, ptr %12) #8
  br label %68

68:                                               ; preds = %67, %34
  br label %69

69:                                               ; preds = %68
  %70 = load ptr, ptr %6, align 8, !tbaa !4
  %71 = load ptr, ptr %7, align 8, !tbaa !9
  %72 = load ptr, ptr %8, align 8, !tbaa !22
  %73 = load ptr, ptr %9, align 8, !tbaa !22
  call void @luaH_newkey(ptr noundef %70, ptr noundef %71, ptr noundef %72, ptr noundef %73)
  call void @llvm.lifetime.end.p0(i64 16, ptr %11) #8
  br label %119

74:                                               ; preds = %5
  %75 = load i32, ptr %10, align 4, !tbaa !19
  %76 = icmp sgt i32 %75, 0
  br i1 %76, label %77, label %95

77:                                               ; preds = %74
  call void @llvm.lifetime.start.p0(i64 8, ptr %15) #8
  %78 = load ptr, ptr %7, align 8, !tbaa !9
  %79 = getelementptr inbounds nuw %struct.Table, ptr %78, i32 0, i32 7
  %80 = load ptr, ptr %79, align 8, !tbaa !28
  %81 = load i32, ptr %10, align 4, !tbaa !19
  %82 = sub nsw i32 %81, 3
  %83 = sext i32 %82 to i64
  %84 = getelementptr inbounds %union.Node, ptr %80, i64 %83
  store ptr %84, ptr %15, align 8, !tbaa !22
  call void @llvm.lifetime.start.p0(i64 8, ptr %16) #8
  %85 = load ptr, ptr %9, align 8, !tbaa !22
  store ptr %85, ptr %16, align 8, !tbaa !22
  %86 = load ptr, ptr %15, align 8, !tbaa !22
  %87 = getelementptr inbounds nuw %struct.TValue, ptr %86, i32 0, i32 0
  %88 = load ptr, ptr %16, align 8, !tbaa !22
  %89 = getelementptr inbounds nuw %struct.TValue, ptr %88, i32 0, i32 0
  call void @llvm.memcpy.p0.p0.i64(ptr align 8 %87, ptr align 8 %89, i64 8, i1 false), !tbaa.struct !26
  %90 = load ptr, ptr %16, align 8, !tbaa !22
  %91 = getelementptr inbounds nuw %struct.TValue, ptr %90, i32 0, i32 1
  %92 = load i8, ptr %91, align 8, !tbaa !24
  %93 = load ptr, ptr %15, align 8, !tbaa !22
  %94 = getelementptr inbounds nuw %struct.TValue, ptr %93, i32 0, i32 1
  store i8 %92, ptr %94, align 8, !tbaa !24
  call void @llvm.lifetime.end.p0(i64 8, ptr %16) #8
  call void @llvm.lifetime.end.p0(i64 8, ptr %15) #8
  br label %118

95:                                               ; preds = %74
  %96 = load i32, ptr %10, align 4, !tbaa !19
  %97 = xor i32 %96, -1
  store i32 %97, ptr %10, align 4, !tbaa !19
  %98 = load ptr, ptr %9, align 8, !tbaa !22
  %99 = getelementptr inbounds nuw %struct.TValue, ptr %98, i32 0, i32 1
  %100 = load i8, ptr %99, align 8, !tbaa !24
  %101 = load ptr, ptr %7, align 8, !tbaa !9
  %102 = getelementptr inbounds nuw %struct.Table, ptr %101, i32 0, i32 6
  %103 = load ptr, ptr %102, align 8, !tbaa !20
  %104 = getelementptr inbounds nuw i8, ptr %103, i64 4
  %105 = load i32, ptr %10, align 4, !tbaa !19
  %106 = zext i32 %105 to i64
  %107 = getelementptr inbounds nuw i8, ptr %104, i64 %106
  store i8 %100, ptr %107, align 1, !tbaa !21
  %108 = load ptr, ptr %7, align 8, !tbaa !9
  %109 = getelementptr inbounds nuw %struct.Table, ptr %108, i32 0, i32 6
  %110 = load ptr, ptr %109, align 8, !tbaa !20
  %111 = getelementptr inbounds %union.Value, ptr %110, i64 -1
  %112 = load i32, ptr %10, align 4, !tbaa !19
  %113 = zext i32 %112 to i64
  %114 = sub i64 0, %113
  %115 = getelementptr inbounds %union.Value, ptr %111, i64 %114
  %116 = load ptr, ptr %9, align 8, !tbaa !22
  %117 = getelementptr inbounds nuw %struct.TValue, ptr %116, i32 0, i32 0
  call void @llvm.memcpy.p0.p0.i64(ptr align 8 %115, ptr align 8 %117, i64 8, i1 false), !tbaa.struct !26
  br label %118

118:                                              ; preds = %95, %77
  br label %119

119:                                              ; preds = %118, %69
  ret void
}