; Function Attrs: nounwind uwtable
define hidden void @luaH_finishset(ptr noundef %0, ptr noundef %1, ptr noundef readonly captures(none) %2, ptr noundef readonly captures(none) %3, i32 noundef %4) local_unnamed_addr #0 {
  %6 = alloca %struct.TValue, align 8
  %7 = alloca i64, align 8
  %8 = icmp eq i32 %4, 1
  br i1 %8, label %9, label %28

9:                                                ; preds = %5
  call void @llvm.lifetime.start.p0(i64 16, ptr nonnull %6) #13
  %10 = getelementptr inbounds nuw i8, ptr %2, i64 8
  %11 = load i8, ptr %10, align 8, !tbaa !14
  %12 = and i8 %11, 15
  %13 = icmp eq i8 %12, 0
  br i1 %13, label %14, label %15, !prof !17

14:                                               ; preds = %9
  tail call void (ptr, ptr, ...) @luaG_runerror(ptr noundef %0, ptr noundef nonnull @.str.1) #12
  unreachable

15:                                               ; preds = %9
  %16 = icmp eq i8 %11, 19
  br i1 %16, label %17, label %27

17:                                               ; preds = %15
  %18 = load double, ptr %2, align 8, !tbaa !16
  call void @llvm.lifetime.start.p0(i64 8, ptr nonnull %7) #13
  %19 = call i32 @luaV_flttointeger(double noundef %18, ptr noundef nonnull %7, i32 noundef 0) #13
  %.not = icmp eq i32 %19, 0
  br i1 %.not, label %23, label %20

20:                                               ; preds = %17
  %21 = load i64, ptr %7, align 8, !tbaa !30
  store i64 %21, ptr %6, align 8, !tbaa !16
  %22 = getelementptr inbounds nuw i8, ptr %6, i64 8
  store i8 3, ptr %22, align 8, !tbaa !14
  br label %26

23:                                               ; preds = %17
  %24 = fcmp uno double %18, 0.000000e+00
  br i1 %24, label %25, label %26, !prof !17

25:                                               ; preds = %23
  call void (ptr, ptr, ...) @luaG_runerror(ptr noundef %0, ptr noundef nonnull @.str.2) #12
  unreachable

26:                                               ; preds = %23, %20
  %.0 = phi ptr [ %6, %20 ], [ %2, %23 ]
  call void @llvm.lifetime.end.p0(i64 8, ptr nonnull %7) #13
  br label %27

27:                                               ; preds = %15, %26
  %.1 = phi ptr [ %.0, %26 ], [ %2, %15 ]
  call fastcc void @luaH_newkey(ptr noundef %0, ptr noundef %1, ptr noundef nonnull %.1, ptr noundef %3)
  call void @llvm.lifetime.end.p0(i64 16, ptr nonnull %6) #13
  br label %54

28:                                               ; preds = %5
  %29 = icmp sgt i32 %4, 0
  br i1 %29, label %30, label %40

30:                                               ; preds = %28
  %31 = getelementptr inbounds nuw i8, ptr %1, i64 24
  %32 = load ptr, ptr %31, align 8, !tbaa !18
  %33 = zext nneg i32 %4 to i64
  %34 = getelementptr %union.Node, ptr %32, i64 %33
  %35 = getelementptr i8, ptr %34, i64 -72
  %36 = load i64, ptr %3, align 8, !tbaa !16
  store i64 %36, ptr %35, align 8, !tbaa !16
  %37 = getelementptr inbounds nuw i8, ptr %3, i64 8
  %38 = load i8, ptr %37, align 8, !tbaa !14
  %39 = getelementptr i8, ptr %34, i64 -64
  store i8 %38, ptr %39, align 8, !tbaa !14
  br label %54

40:                                               ; preds = %28
  %41 = xor i32 %4, -1
  %42 = getelementptr inbounds nuw i8, ptr %3, i64 8
  %43 = load i8, ptr %42, align 8, !tbaa !14
  %44 = getelementptr inbounds nuw i8, ptr %1, i64 16
  %45 = load ptr, ptr %44, align 8, !tbaa !19
  %46 = getelementptr inbounds nuw i8, ptr %45, i64 4
  %47 = zext i32 %41 to i64
  %48 = getelementptr inbounds nuw i8, ptr %46, i64 %47
  store i8 %43, ptr %48, align 1, !tbaa !16
  %49 = load ptr, ptr %44, align 8, !tbaa !19
  %50 = getelementptr inbounds i8, ptr %49, i64 -8
  %51 = sub nsw i64 0, %47
  %52 = getelementptr inbounds %union.Value, ptr %50, i64 %51
  %53 = load i64, ptr %3, align 8, !tbaa !16
  store i64 %53, ptr %52, align 8, !tbaa !16
  br label %54

54:                                               ; preds = %30, %40, %27
  ret void
}